; ModuleID = 'source-C-CXX/11/1411.cpp'
source_filename = "source-C-CXX/11/1411.cpp"
target datalayout = "e-m:e-p270:32:32-p271:32:32-p272:64:64-i64:64-f80:128-n8:16:32:64-S128"
target triple = "x86_64-pc-linux-gnu"

%"class.std::ios_base::Init" = type { i8 }
%"class.std::basic_istream" = type { i32 (...)**, i64, %"class.std::basic_ios" }
%"class.std::basic_ios" = type { %"class.std::ios_base", %"class.std::basic_ostream"*, i8, i8, %"class.std::basic_streambuf"*, %"class.std::ctype"*, %"class.std::num_put"*, %"class.std::num_get"* }
%"class.std::ios_base" = type { i32 (...)**, i64, i64, i32, i32, i32, %"struct.std::ios_base::_Callback_list"*, %"struct.std::ios_base::_Words", [8 x %"struct.std::ios_base::_Words"], i32, %"struct.std::ios_base::_Words"*, %"class.std::locale" }
%"struct.std::ios_base::_Callback_list" = type { %"struct.std::ios_base::_Callback_list"*, void (i32, %"class.std::ios_base"*, i32)*, i32, i32 }
%"struct.std::ios_base::_Words" = type { i8*, i64 }
%"class.std::locale" = type { %"class.std::locale::_Impl"* }
%"class.std::locale::_Impl" = type { i32, %"class.std::locale::facet"**, i64, %"class.std::locale::facet"**, i8** }
%"class.std::locale::facet" = type <{ i32 (...)**, i32, [4 x i8] }>
%"class.std::basic_ostream" = type { i32 (...)**, %"class.std::basic_ios" }
%"class.std::basic_streambuf" = type { i32 (...)**, i8*, i8*, i8*, i8*, i8*, i8*, %"class.std::locale" }
%"class.std::ctype" = type <{ %"class.std::locale::facet.base", [4 x i8], %struct.__locale_struct*, i8, [7 x i8], i32*, i32*, i16*, i8, [256 x i8], [256 x i8], i8, [6 x i8] }>
%"class.std::locale::facet.base" = type <{ i32 (...)**, i32 }>
%struct.__locale_struct = type { [13 x %struct.__locale_data*], i16*, i32*, i32*, [13 x i8*] }
%struct.__locale_data = type opaque
%"class.std::num_put" = type { %"class.std::locale::facet.base", [4 x i8] }
%"class.std::num_get" = type { %"class.std::locale::facet.base", [4 x i8] }

@_ZStL8__ioinit = internal global %"class.std::ios_base::Init" zeroinitializer, align 1
@__dso_handle = external hidden global i8
@_ZSt3cin = external global %"class.std::basic_istream", align 8
@_ZSt4cout = external global %"class.std::basic_ostream", align 8
@llvm.global_ctors = appending global [1 x { i32, void ()*, i8* }] [{ i32, void ()*, i8* } { i32 65535, void ()* @_GLOBAL__sub_I_1411.cpp, i8* null }]

declare void @_ZNSt8ios_base4InitC1Ev(%"class.std::ios_base::Init"* nonnull align 1 dereferenceable(1)) unnamed_addr #0

; Function Attrs: nounwind
declare void @_ZNSt8ios_base4InitD1Ev(%"class.std::ios_base::Init"* nonnull align 1 dereferenceable(1)) unnamed_addr #1

; Function Attrs: nofree nounwind
declare i32 @__cxa_atexit(void (i8*)*, i8*, i8*) local_unnamed_addr #2

; Function Attrs: mustprogress norecurse sspstrong uwtable
define dso_local i32 @main() local_unnamed_addr #3 {
  %1 = alloca i32, align 4
  %2 = alloca [15 x i32], align 16
  %3 = bitcast i32* %1 to i8*
  call void @llvm.lifetime.start.p0i8(i64 4, i8* nonnull %3) #9
  %4 = call nonnull align 8 dereferenceable(16) %"class.std::basic_istream"* @_ZNSirsERi(%"class.std::basic_istream"* nonnull align 8 dereferenceable(16) @_ZSt3cin, i32* nonnull align 4 dereferenceable(4) %1)
  %5 = bitcast [15 x i32]* %2 to i8*
  %6 = getelementptr inbounds [15 x i32], [15 x i32]* %2, i64 0, i64 0
  %7 = load i32, i32* %1, align 4, !tbaa !5
  %8 = icmp eq i32 %7, -1
  br i1 %8, label %120, label %9

9:                                                ; preds = %0
  %10 = getelementptr inbounds [15 x i32], [15 x i32]* %2, i64 0, i64 1
  %11 = getelementptr inbounds [15 x i32], [15 x i32]* %2, i64 0, i64 5
  %12 = getelementptr inbounds [15 x i32], [15 x i32]* %2, i64 0, i64 6
  %13 = getelementptr inbounds [15 x i32], [15 x i32]* %2, i64 0, i64 8
  %14 = getelementptr inbounds [15 x i32], [15 x i32]* %2, i64 0, i64 12
  %15 = getelementptr inbounds [15 x i32], [15 x i32]* %2, i64 0, i64 13
  %16 = getelementptr inbounds [15 x i32], [15 x i32]* %2, i64 0, i64 14
  %17 = bitcast i32* %10 to <4 x i32>*
  %18 = bitcast i32* %12 to <2 x i32>*
  %19 = bitcast i32* %13 to <4 x i32>*
  br label %20

20:                                               ; preds = %9, %113
  %21 = phi i32 [ %118, %113 ], [ %7, %9 ]
  call void @llvm.lifetime.start.p0i8(i64 60, i8* nonnull %5) #9
  call void @llvm.memset.p0i8.i64(i8* noundef nonnull align 16 dereferenceable(60) %5, i8 0, i64 60, i1 false)
  store i32 %21, i32* %6, align 16, !tbaa !5
  br label %22

22:                                               ; preds = %22, %20
  %23 = phi i64 [ %27, %22 ], [ 1, %20 ]
  %24 = call nonnull align 8 dereferenceable(16) %"class.std::basic_istream"* @_ZNSirsERi(%"class.std::basic_istream"* nonnull align 8 dereferenceable(16) @_ZSt3cin, i32* nonnull align 4 dereferenceable(4) %1)
  %25 = load i32, i32* %1, align 4, !tbaa !5
  %26 = getelementptr inbounds [15 x i32], [15 x i32]* %2, i64 0, i64 %23
  store i32 %25, i32* %26, align 4, !tbaa !5
  %27 = add nuw i64 %23, 1
  %28 = icmp eq i32 %25, 0
  br i1 %28, label %29, label %22, !llvm.loop !9

29:                                               ; preds = %22
  %30 = load <4 x i32>, <4 x i32>* %17, align 4, !tbaa !5
  %31 = load i32, i32* %11, align 4, !tbaa !5
  %32 = load <2 x i32>, <2 x i32>* %18, align 8, !tbaa !5
  %33 = load <4 x i32>, <4 x i32>* %19, align 16, !tbaa !5
  %34 = load i32, i32* %14, align 16, !tbaa !5
  %35 = load i32, i32* %15, align 4, !tbaa !5
  %36 = load i32, i32* %16, align 8, !tbaa !5
  %37 = insertelement <8 x i32> poison, i32 %21, i32 0
  %38 = shufflevector <4 x i32> %30, <4 x i32> poison, <8 x i32> <i32 0, i32 1, i32 2, i32 3, i32 undef, i32 undef, i32 undef, i32 undef>
  %39 = shufflevector <8 x i32> %37, <8 x i32> %38, <8 x i32> <i32 0, i32 8, i32 9, i32 10, i32 11, i32 undef, i32 undef, i32 undef>
  %40 = insertelement <8 x i32> %39, i32 %31, i32 5
  %41 = shufflevector <2 x i32> %32, <2 x i32> poison, <8 x i32> <i32 0, i32 1, i32 undef, i32 undef, i32 undef, i32 undef, i32 undef, i32 undef>
  %42 = shufflevector <8 x i32> %40, <8 x i32> %41, <8 x i32> <i32 0, i32 1, i32 2, i32 3, i32 4, i32 5, i32 8, i32 9>
  br label %43

43:                                               ; preds = %83, %29
  %44 = phi i32 [ %21, %29 ], [ %85, %83 ]
  %45 = phi i64 [ 0, %29 ], [ %81, %83 ]
  %46 = phi i32 [ 0, %29 ], [ %80, %83 ]
  %47 = shl nsw i32 %44, 1
  %48 = icmp ne i32 %44, 0
  %49 = insertelement <8 x i32> poison, i32 %47, i32 0
  %50 = shufflevector <8 x i32> %49, <8 x i32> poison, <8 x i32> zeroinitializer
  %51 = icmp eq <8 x i32> %42, %50
  %52 = insertelement <8 x i1> poison, i1 %48, i32 0
  %53 = shufflevector <8 x i1> %52, <8 x i1> poison, <8 x i32> zeroinitializer
  %54 = and <8 x i1> %53, %51
  %55 = insertelement <4 x i32> poison, i32 %47, i32 0
  %56 = shufflevector <4 x i32> %55, <4 x i32> poison, <4 x i32> zeroinitializer
  %57 = icmp eq <4 x i32> %33, %56
  %58 = insertelement <4 x i1> poison, i1 %48, i32 0
  %59 = shufflevector <4 x i1> %58, <4 x i1> poison, <4 x i32> zeroinitializer
  %60 = and <4 x i1> %59, %57
  %61 = icmp eq i32 %34, %47
  %62 = and i1 %48, %61
  %63 = zext i1 %62 to i32
  %64 = icmp eq i32 %35, %47
  %65 = and i1 %48, %64
  %66 = zext i1 %65 to i32
  %67 = icmp eq i32 %36, %47
  %68 = and i1 %48, %67
  %69 = zext i1 %68 to i32
  %70 = bitcast <8 x i1> %54 to i8
  %71 = call i8 @llvm.ctpop.i8(i8 %70), !range !11
  %72 = zext i8 %71 to i32
  %73 = bitcast <4 x i1> %60 to i4
  %74 = call i4 @llvm.ctpop.i4(i4 %73), !range !12
  %75 = zext i4 %74 to i32
  %76 = add nuw nsw i32 %72, %75
  %77 = add nuw nsw i32 %76, %63
  %78 = add nuw nsw i32 %77, %66
  %79 = add nuw nsw i32 %78, %69
  %80 = add nuw nsw i32 %79, %46
  %81 = add nuw nsw i64 %45, 1
  %82 = icmp eq i64 %81, 15
  br i1 %82, label %86, label %83, !llvm.loop !13

83:                                               ; preds = %43
  %84 = getelementptr inbounds [15 x i32], [15 x i32]* %2, i64 0, i64 %81
  %85 = load i32, i32* %84, align 4, !tbaa !5
  br label %43

86:                                               ; preds = %43
  %87 = call nonnull align 8 dereferenceable(8) %"class.std::basic_ostream"* @_ZNSolsEi(%"class.std::basic_ostream"* nonnull align 8 dereferenceable(8) @_ZSt4cout, i32 %80)
  %88 = bitcast %"class.std::basic_ostream"* %87 to i8**
  %89 = load i8*, i8** %88, align 8, !tbaa !14
  %90 = getelementptr i8, i8* %89, i64 -24
  %91 = bitcast i8* %90 to i64*
  %92 = load i64, i64* %91, align 8
  %93 = bitcast %"class.std::basic_ostream"* %87 to i8*
  %94 = add nsw i64 %92, 240
  %95 = getelementptr inbounds i8, i8* %93, i64 %94
  %96 = bitcast i8* %95 to %"class.std::ctype"**
  %97 = load %"class.std::ctype"*, %"class.std::ctype"** %96, align 8, !tbaa !16
  %98 = icmp eq %"class.std::ctype"* %97, null
  br i1 %98, label %99, label %100

99:                                               ; preds = %86
  call void @_ZSt16__throw_bad_castv() #10
  unreachable

100:                                              ; preds = %86
  %101 = getelementptr inbounds %"class.std::ctype", %"class.std::ctype"* %97, i64 0, i32 8
  %102 = load i8, i8* %101, align 8, !tbaa !20
  %103 = icmp eq i8 %102, 0
  br i1 %103, label %107, label %104

104:                                              ; preds = %100
  %105 = getelementptr inbounds %"class.std::ctype", %"class.std::ctype"* %97, i64 0, i32 9, i64 10
  %106 = load i8, i8* %105, align 1, !tbaa !22
  br label %113

107:                                              ; preds = %100
  call void @_ZNKSt5ctypeIcE13_M_widen_initEv(%"class.std::ctype"* nonnull align 8 dereferenceable(570) %97)
  %108 = bitcast %"class.std::ctype"* %97 to i8 (%"class.std::ctype"*, i8)***
  %109 = load i8 (%"class.std::ctype"*, i8)**, i8 (%"class.std::ctype"*, i8)*** %108, align 8, !tbaa !14
  %110 = getelementptr inbounds i8 (%"class.std::ctype"*, i8)*, i8 (%"class.std::ctype"*, i8)** %109, i64 6
  %111 = load i8 (%"class.std::ctype"*, i8)*, i8 (%"class.std::ctype"*, i8)** %110, align 8
  %112 = call signext i8 %111(%"class.std::ctype"* nonnull align 8 dereferenceable(570) %97, i8 signext 10)
  br label %113

113:                                              ; preds = %104, %107
  %114 = phi i8 [ %106, %104 ], [ %112, %107 ]
  %115 = call nonnull align 8 dereferenceable(8) %"class.std::basic_ostream"* @_ZNSo3putEc(%"class.std::basic_ostream"* nonnull align 8 dereferenceable(8) %87, i8 signext %114)
  %116 = call nonnull align 8 dereferenceable(8) %"class.std::basic_ostream"* @_ZNSo5flushEv(%"class.std::basic_ostream"* nonnull align 8 dereferenceable(8) %115)
  %117 = call nonnull align 8 dereferenceable(16) %"class.std::basic_istream"* @_ZNSirsERi(%"class.std::basic_istream"* nonnull align 8 dereferenceable(16) @_ZSt3cin, i32* nonnull align 4 dereferenceable(4) %1)
  call void @llvm.lifetime.end.p0i8(i64 60, i8* nonnull %5) #9
  %118 = load i32, i32* %1, align 4, !tbaa !5
  %119 = icmp eq i32 %118, -1
  br i1 %119, label %120, label %20, !llvm.loop !23

120:                                              ; preds = %113, %0
  call void @llvm.lifetime.end.p0i8(i64 4, i8* nonnull %3) #9
  ret i32 0
}

; Function Attrs: argmemonly mustprogress nofree nosync nounwind willreturn
declare void @llvm.lifetime.start.p0i8(i64 immarg, i8* nocapture) #4

declare nonnull align 8 dereferenceable(16) %"class.std::basic_istream"* @_ZNSirsERi(%"class.std::basic_istream"* nonnull align 8 dereferenceable(16), i32* nonnull align 4 dereferenceable(4)) local_unnamed_addr #0

; Function Attrs: argmemonly mustprogress nofree nounwind willreturn writeonly
declare void @llvm.memset.p0i8.i64(i8* nocapture writeonly, i8, i64, i1 immarg) #5

; Function Attrs: argmemonly mustprogress nofree nosync nounwind willreturn
declare void @llvm.lifetime.end.p0i8(i64 immarg, i8* nocapture) #4

declare nonnull align 8 dereferenceable(8) %"class.std::basic_ostream"* @_ZNSolsEi(%"class.std::basic_ostream"* nonnull align 8 dereferenceable(8), i32) local_unnamed_addr #0

declare nonnull align 8 dereferenceable(8) %"class.std::basic_ostream"* @_ZNSo3putEc(%"class.std::basic_ostream"* nonnull align 8 dereferenceable(8), i8 signext) local_unnamed_addr #0

declare nonnull align 8 dereferenceable(8) %"class.std::basic_ostream"* @_ZNSo5flushEv(%"class.std::basic_ostream"* nonnull align 8 dereferenceable(8)) local_unnamed_addr #0

; Function Attrs: noreturn
declare void @_ZSt16__throw_bad_castv() local_unnamed_addr #6

declare void @_ZNKSt5ctypeIcE13_M_widen_initEv(%"class.std::ctype"* nonnull align 8 dereferenceable(570)) local_unnamed_addr #0

; Function Attrs: sspstrong uwtable
define internal void @_GLOBAL__sub_I_1411.cpp() #7 section ".text.startup" {
  tail call void @_ZNSt8ios_base4InitC1Ev(%"class.std::ios_base::Init"* nonnull align 1 dereferenceable(1) @_ZStL8__ioinit)
  %1 = tail call i32 @__cxa_atexit(void (i8*)* bitcast (void (%"class.std::ios_base::Init"*)* @_ZNSt8ios_base4InitD1Ev to void (i8*)*), i8* getelementptr inbounds (%"class.std::ios_base::Init", %"class.std::ios_base::Init"* @_ZStL8__ioinit, i64 0, i32 0), i8* nonnull @__dso_handle) #9
  ret void
}

; Function Attrs: nofree nosync nounwind readnone speculatable willreturn
declare i8 @llvm.ctpop.i8(i8) #8

; Function Attrs: nofree nosync nounwind readnone speculatable willreturn
declare i4 @llvm.ctpop.i4(i4) #8


!llvm.module.flags = !{!0, !1, !2, !3}
!llvm.ident = !{!4}

!0 = !{i32 1, !"wchar_size", i32 4}
!1 = !{i32 7, !"PIC Level", i32 2}
!2 = !{i32 7, !"PIE Level", i32 2}
!3 = !{i32 7, !"uwtable", i32 1}
!4 = !{!"clang version 13.0.0"}
!5 = !{!6, !6, i64 0}
!6 = !{!"int", !7, i64 0}
!7 = !{!"omnipotent char", !8, i64 0}
!8 = !{!"Simple C++ TBAA"}
!9 = distinct !{!9, !10}
!10 = !{!"llvm.loop.mustprogress"}
!11 = !{i8 0, i8 9}
!12 = !{i4 0, i4 5}
!13 = distinct !{!13, !10}
!14 = !{!15, !15, i64 0}
!15 = !{!"vtable pointer", !8, i64 0}
!16 = !{!17, !18, i64 240}
!17 = !{!"_ZTSSt9basic_iosIcSt11char_traitsIcEE", !18, i64 216, !7, i64 224, !19, i64 225, !18, i64 232, !18, i64 240, !18, i64 248, !18, i64 256}
!18 = !{!"any pointer", !7, i64 0}
!19 = !{!"bool", !7, i64 0}
!20 = !{!21, !7, i64 56}
!21 = !{!"_ZTSSt5ctypeIcE", !18, i64 16, !19, i64 24, !18, i64 32, !18, i64 40, !18, i64 48, !7, i64 56, !7, i64 57, !7, i64 313, !7, i64 569}
!22 = !{!7, !7, i64 0}
!23 = distinct !{!23, !10}
